target datalayout = "e-m:e-p270:32:32-p271:32:32-p272:64:64-i64:64-i128:128-f80:128-n8:16:32:64-S128"
target triple = "x86_64-unknown-linux-gnu"

%"class.QuantLib::HestonExpansion" = type { ptr }
%"class.QuantLib::LPP3HestonExpansion" = type { %"class.QuantLib::HestonExpansion", [4 x double], double, double, double, double }

; Function Attrs: inlinehint mustprogress nounwind uwtable
define linkonce_odr noundef nonnull align 8 dereferenceable(8) ptr @_ZSt3maxIdERKT_S2_S2_(ptr noundef nonnull align 8 dereferenceable(8) %__a, ptr noundef nonnull align 8 dereferenceable(8) %__b) #5 comdat {
entry:
  %retval = alloca ptr, align 8
  %__a.addr = alloca ptr, align 8
  %__b.addr = alloca ptr, align 8
  store ptr %__a, ptr %__a.addr, align 8, !tbaa !3
  store ptr %__b, ptr %__b.addr, align 8, !tbaa !3
  %0 = load ptr, ptr %__a.addr, align 8, !tbaa !3
  %1 = load double, ptr %0, align 8, !tbaa !53
  %2 = load ptr, ptr %__b.addr, align 8, !tbaa !3
  %3 = load double, ptr %2, align 8, !tbaa !53
  %cmp = fcmp olt double %1, %3
  br i1 %cmp, label %if.then, label %if.end

if.then:                                          ; preds = %entry
  %4 = load ptr, ptr %__b.addr, align 8, !tbaa !3
  store ptr %4, ptr %retval, align 8
  br label %return

if.end:                                           ; preds = %entry
  %5 = load ptr, ptr %__a.addr, align 8, !tbaa !3
  store ptr %5, ptr %retval, align 8
  br label %return

return:                                           ; preds = %if.end, %if.then
  %6 = load ptr, ptr %retval, align 8
  ret ptr %6
}

; Function Attrs: mustprogress uwtable
define noundef double @_ZNK8QuantLib19LPP3HestonExpansion17impliedVolatilityEdd(ptr noundef nonnull align 8 dereferenceable(72) %this, double noundef %strike, double noundef %forward) unnamed_addr #2 align 2 {
entry:
  %this.addr = alloca ptr, align 8
  %strike.addr = alloca double, align 8
  %forward.addr = alloca double, align 8
  %x = alloca double, align 8
  %vol = alloca double, align 8
  %ref.tmp = alloca double, align 8
  store ptr %this, ptr %this.addr, align 8, !tbaa !3
  store double %strike, ptr %strike.addr, align 8, !tbaa !53
  store double %forward, ptr %forward.addr, align 8, !tbaa !53
  %this1 = load ptr, ptr %this.addr, align 8
  call void @llvm.lifetime.start.p0(i64 8, ptr %x) #13
  %0 = load double, ptr %strike.addr, align 8, !tbaa !53
  %1 = load double, ptr %forward.addr, align 8, !tbaa !53
  %div = fdiv double %0, %1
  %call = call double @log(double noundef %div) #13, !tbaa !54
  store double %call, ptr %x, align 8, !tbaa !53
  call void @llvm.lifetime.start.p0(i64 8, ptr %vol) #13
  %coeffs = getelementptr inbounds nuw %"class.QuantLib::LPP3HestonExpansion", ptr %this1, i32 0, i32 1
  %arrayidx = getelementptr inbounds [4 x double], ptr %coeffs, i64 0, i64 0
  %2 = load double, ptr %arrayidx, align 8, !tbaa !53
  %3 = load double, ptr %x, align 8, !tbaa !53
  %coeffs2 = getelementptr inbounds nuw %"class.QuantLib::LPP3HestonExpansion", ptr %this1, i32 0, i32 1
  %arrayidx3 = getelementptr inbounds [4 x double], ptr %coeffs2, i64 0, i64 1
  %4 = load double, ptr %arrayidx3, align 8, !tbaa !53
  %5 = load double, ptr %x, align 8, !tbaa !53
  %coeffs4 = getelementptr inbounds nuw %"class.QuantLib::LPP3HestonExpansion", ptr %this1, i32 0, i32 1
  %arrayidx5 = getelementptr inbounds [4 x double], ptr %coeffs4, i64 0, i64 2
  %6 = load double, ptr %arrayidx5, align 8, !tbaa !53
  %7 = load double, ptr %x, align 8, !tbaa !53
  %coeffs6 = getelementptr inbounds nuw %"class.QuantLib::LPP3HestonExpansion", ptr %this1, i32 0, i32 1
  %arrayidx7 = getelementptr inbounds [4 x double], ptr %coeffs6, i64 0, i64 3
  %8 = load double, ptr %arrayidx7, align 8, !tbaa !53
  %9 = call double @llvm.fmuladd.f64(double %7, double %8, double %6)
  %10 = call double @llvm.fmuladd.f64(double %5, double %9, double %4)
  %11 = call double @llvm.fmuladd.f64(double %3, double %10, double %2)
  store double %11, ptr %vol, align 8, !tbaa !53
  call void @llvm.lifetime.start.p0(i64 8, ptr %ref.tmp) #13
  store double 1.000000e-08, ptr %ref.tmp, align 8, !tbaa !53
  %call8 = call noundef nonnull align 8 dereferenceable(8) ptr @_ZSt3maxIdERKT_S2_S2_(ptr noundef nonnull align 8 dereferenceable(8) %ref.tmp, ptr noundef nonnull align 8 dereferenceable(8) %vol)
  %12 = load double, ptr %call8, align 8, !tbaa !53
  call void @llvm.lifetime.end.p0(i64 8, ptr %ref.tmp) #13
  call void @llvm.lifetime.end.p0(i64 8, ptr %vol) #13
  call void @llvm.lifetime.end.p0(i64 8, ptr %x) #13
  ret double %12
}