; Function Attrs: mustprogress nofree nounwind willreturn memory(write, argmem: readwrite) uwtable
define noundef double @_ZNK8QuantLib19LPP3HestonExpansion17impliedVolatilityEdd(ptr nocapture noundef nonnull readonly align 8 dereferenceable(72) %this, double noundef %strike, double noundef %forward) unnamed_addr #11 align 2 {
entry:
  %div = fdiv double %strike, %forward
  %call = tail call double @log(double noundef %div) #29, !tbaa !112
  %coeffs = getelementptr inbounds nuw i8, ptr %this, i64 8
  %0 = load double, ptr %coeffs, align 8, !tbaa !114
  %arrayidx3 = getelementptr inbounds i8, ptr %this, i64 16
  %1 = load double, ptr %arrayidx3, align 8, !tbaa !114
  %arrayidx5 = getelementptr inbounds i8, ptr %this, i64 24
  %2 = load double, ptr %arrayidx5, align 8, !tbaa !114
  %arrayidx7 = getelementptr inbounds i8, ptr %this, i64 32
  %3 = load double, ptr %arrayidx7, align 8, !tbaa !114
  %4 = tail call double @llvm.fmuladd.f64(double %call, double %3, double %2)
  %5 = tail call double @llvm.fmuladd.f64(double %call, double %4, double %1)
  %6 = tail call double @llvm.fmuladd.f64(double %call, double %5, double %0)
  %cmp.i = fcmp ogt double %6, 1.000000e-08
  %.sroa.speculated = select i1 %cmp.i, double %6, double 1.000000e-08
  ret double %.sroa.speculated
}